target datalayout = "e-m:e-p270:32:32-p271:32:32-p272:64:64-i64:64-i128:128-f80:128-n8:16:32:64-S128"
target triple = "x86_64-pc-linux-gnu"

%struct.evthread_lock_callbacks = type { i32, i32, ptr, ptr, ptr, ptr }
%struct.event = type { %struct.event_callback, %union.anon.0, i32, i16, i16, ptr, %union.anon.2, %struct.timeval }
%struct.event_callback = type { %struct.anon, i16, i8, i8, %union.anon, ptr }
%struct.anon = type { ptr, ptr }
%union.anon = type { ptr }
%union.anon.0 = type { %struct.anon.1 }
%struct.anon.1 = type { ptr, ptr }
%union.anon.2 = type { %struct.anon.3 }
%struct.anon.3 = type { %struct.anon.4, %struct.timeval }
%struct.anon.4 = type { ptr, ptr }
%struct.timeval = type { i64, i64 }
%struct.sockaddr_storage = type { i16, [118 x i8], i64 }
%struct.evdns_base = type { ptr, ptr, ptr, i32, ptr, i32, i32, i32, i32, %struct.timeval, i32, i32, i32, i32, i16, %struct.timeval, i16, %struct.timeval, %struct.sockaddr_storage, i32, %struct.timeval, i32, i32, i32, i32, i32, i32, ptr, %struct.hosts_list, %struct.evdns_tree, ptr, i32, i32, i32, i32 }
%struct.hosts_list = type { ptr, ptr }
%struct.evdns_tree = type { ptr }
%struct.nameserver = type { i32, ptr, %struct.sockaddr_storage, i32, i32, i32, %struct.event, ptr, ptr, %struct.event, ptr, i8, i8, i8, ptr, i32 }
%struct.request = type { ptr, i16, i8, i32, i32, i32, ptr, ptr, ptr, %struct.event, i16, i8, ptr, ptr, ptr }
%struct.evdns_request = type { ptr, ptr, i32, %struct.event_callback, ptr, ptr, i8, i8, i32, i32, %struct.reply, i32, ptr, ptr, i32, i16 }
%struct.reply = type { i32, i8, i32, %union.anon.7, ptr }
%union.anon.7 = type { ptr }
%struct.in6_addr = type { %union.anon.8 }
%union.anon.8 = type { [4 x i32] }

@evthread_lock_fns_ = external global %struct.evthread_lock_callbacks, align 8
@.str.4 = private unnamed_addr constant [35 x i8] c"Resolve requested for %s (reverse)\00", align 1
@.str.5 = private unnamed_addr constant [17 x i8] c"0123456789abcdef\00", align 1
@.str.6 = private unnamed_addr constant [9 x i8] c"ip6.arpa\00", align 1
@evthread_lock_debugging_enabled_ = external global i32, align 4

; Function Attrs: nounwind uwtable
define internal void @evdns_request_insert(ptr noundef %0, ptr noundef %1) #0 {
  %3 = alloca ptr, align 8
  %4 = alloca ptr, align 8
  store ptr %0, ptr %3, align 8
  store ptr %1, ptr %4, align 8
  br label %5

5:                                                ; preds = %2
  %6 = load ptr, ptr %3, align 8
  %7 = getelementptr inbounds nuw %struct.request, ptr %6, i32 0, i32 13
  %8 = load ptr, ptr %7, align 8
  %9 = getelementptr inbounds nuw %struct.evdns_base, ptr %8, i32 0, i32 30
  %10 = load ptr, ptr %9, align 8
  %11 = icmp ne ptr %10, null
  br i1 %11, label %12, label %18

12:                                               ; preds = %5
  %13 = load i32, ptr @evthread_lock_debugging_enabled_, align 4
  %14 = icmp ne i32 %13, 0
  br i1 %14, label %15, label %18

15:                                               ; preds = %12
  br label %16

16:                                               ; preds = %15
  br label %17

17:                                               ; preds = %16
  br label %18

18:                                               ; preds = %17, %12, %5
  br label %19

19:                                               ; preds = %18
  br label %20

20:                                               ; preds = %19
  br label %21

21:                                               ; preds = %20
  %22 = load ptr, ptr %4, align 8
  %23 = load ptr, ptr %22, align 8
  %24 = icmp ne ptr %23, null
  br i1 %24, label %33, label %25

25:                                               ; preds = %21
  %26 = load ptr, ptr %3, align 8
  %27 = load ptr, ptr %4, align 8
  store ptr %26, ptr %27, align 8
  %28 = load ptr, ptr %3, align 8
  %29 = load ptr, ptr %3, align 8
  %30 = getelementptr inbounds nuw %struct.request, ptr %29, i32 0, i32 8
  store ptr %28, ptr %30, align 8
  %31 = load ptr, ptr %3, align 8
  %32 = getelementptr inbounds nuw %struct.request, ptr %31, i32 0, i32 7
  store ptr %28, ptr %32, align 8
  br label %53

33:                                               ; preds = %21
  %34 = load ptr, ptr %4, align 8
  %35 = load ptr, ptr %34, align 8
  %36 = getelementptr inbounds nuw %struct.request, ptr %35, i32 0, i32 8
  %37 = load ptr, ptr %36, align 8
  %38 = load ptr, ptr %3, align 8
  %39 = getelementptr inbounds nuw %struct.request, ptr %38, i32 0, i32 8
  store ptr %37, ptr %39, align 8
  %40 = load ptr, ptr %3, align 8
  %41 = load ptr, ptr %3, align 8
  %42 = getelementptr inbounds nuw %struct.request, ptr %41, i32 0, i32 8
  %43 = load ptr, ptr %42, align 8
  %44 = getelementptr inbounds nuw %struct.request, ptr %43, i32 0, i32 7
  store ptr %40, ptr %44, align 8
  %45 = load ptr, ptr %4, align 8
  %46 = load ptr, ptr %45, align 8
  %47 = load ptr, ptr %3, align 8
  %48 = getelementptr inbounds nuw %struct.request, ptr %47, i32 0, i32 7
  store ptr %46, ptr %48, align 8
  %49 = load ptr, ptr %3, align 8
  %50 = load ptr, ptr %4, align 8
  %51 = load ptr, ptr %50, align 8
  %52 = getelementptr inbounds nuw %struct.request, ptr %51, i32 0, i32 8
  store ptr %49, ptr %52, align 8
  br label %53

53:                                               ; preds = %33, %25
  ret void
}

; Function Attrs: nounwind uwtable
define internal void @request_submit(ptr noundef %0) #0 {
  %2 = alloca ptr, align 8
  %3 = alloca ptr, align 8
  store ptr %0, ptr %2, align 8
  call void @llvm.lifetime.start.p0(i64 8, ptr %3) #10
  %4 = load ptr, ptr %2, align 8
  %5 = getelementptr inbounds nuw %struct.request, ptr %4, i32 0, i32 13
  %6 = load ptr, ptr %5, align 8
  store ptr %6, ptr %3, align 8
  br label %7

7:                                                ; preds = %1
  %8 = load ptr, ptr %3, align 8
  %9 = getelementptr inbounds nuw %struct.evdns_base, ptr %8, i32 0, i32 30
  %10 = load ptr, ptr %9, align 8
  %11 = icmp ne ptr %10, null
  br i1 %11, label %12, label %19

12:                                               ; preds = %7
  %13 = load i32, ptr @evthread_lock_debugging_enabled_, align 4
  %14 = icmp ne i32 %13, 0
  br i1 %14, label %15, label %19

15:                                               ; preds = %12
  br label %16

16:                                               ; preds = %15
  br label %17

17:                                               ; preds = %16
  br label %18

18:                                               ; preds = %17
  br label %19

19:                                               ; preds = %18, %12, %7
  br label %20

20:                                               ; preds = %19
  br label %21

21:                                               ; preds = %20
  br label %22

22:                                               ; preds = %21
  br label %23

23:                                               ; preds = %22
  br label %24

24:                                               ; preds = %23
  %25 = load ptr, ptr %2, align 8
  %26 = getelementptr inbounds nuw %struct.request, ptr %25, i32 0, i32 6
  %27 = load ptr, ptr %26, align 8
  %28 = icmp ne ptr %27, null
  br i1 %28, label %29, label %56

29:                                               ; preds = %24
  %30 = load ptr, ptr %2, align 8
  %31 = load ptr, ptr %3, align 8
  %32 = getelementptr inbounds nuw %struct.evdns_base, ptr %31, i32 0, i32 0
  %33 = load ptr, ptr %32, align 8
  %34 = load ptr, ptr %2, align 8
  %35 = getelementptr inbounds nuw %struct.request, ptr %34, i32 0, i32 10
  %36 = load i16, ptr %35, align 8
  %37 = zext i16 %36 to i32
  %38 = load ptr, ptr %3, align 8
  %39 = getelementptr inbounds nuw %struct.evdns_base, ptr %38, i32 0, i32 3
  %40 = load i32, ptr %39, align 8
  %41 = srem i32 %37, %40
  %42 = sext i32 %41 to i64
  %43 = getelementptr inbounds ptr, ptr %33, i64 %42
  call void @evdns_request_insert(ptr noundef %30, ptr noundef %43)
  %44 = load ptr, ptr %3, align 8
  %45 = getelementptr inbounds nuw %struct.evdns_base, ptr %44, i32 0, i32 6
  %46 = load i32, ptr %45, align 4
  %47 = add nsw i32 %46, 1
  store i32 %47, ptr %45, align 4
  %48 = load ptr, ptr %2, align 8
  %49 = getelementptr inbounds nuw %struct.request, ptr %48, i32 0, i32 6
  %50 = load ptr, ptr %49, align 8
  %51 = getelementptr inbounds nuw %struct.nameserver, ptr %50, i32 0, i32 15
  %52 = load i32, ptr %51, align 8
  %53 = add nsw i32 %52, 1
  store i32 %53, ptr %51, align 8
  %54 = load ptr, ptr %2, align 8
  %55 = call i32 @evdns_request_transmit(ptr noundef %54)
  br label %64

56:                                               ; preds = %24
  %57 = load ptr, ptr %2, align 8
  %58 = load ptr, ptr %3, align 8
  %59 = getelementptr inbounds nuw %struct.evdns_base, ptr %58, i32 0, i32 1
  call void @evdns_request_insert(ptr noundef %57, ptr noundef %59)
  %60 = load ptr, ptr %3, align 8
  %61 = getelementptr inbounds nuw %struct.evdns_base, ptr %60, i32 0, i32 7
  %62 = load i32, ptr %61, align 8
  %63 = add nsw i32 %62, 1
  store i32 %63, ptr %61, align 8
  br label %64

64:                                               ; preds = %56, %29
  call void @llvm.lifetime.end.p0(i64 8, ptr %3) #10
  ret void
}

; Function Attrs: nounwind uwtable
define ptr @evdns_base_resolve_reverse_ipv6(ptr noundef %0, ptr noundef %1, i32 noundef %2, ptr noundef %3, ptr noundef %4) #0 {
  %6 = alloca ptr, align 8
  %7 = alloca ptr, align 8
  %8 = alloca ptr, align 8
  %9 = alloca i32, align 4
  %10 = alloca ptr, align 8
  %11 = alloca ptr, align 8
  %12 = alloca [73 x i8], align 16
  %13 = alloca ptr, align 8
  %14 = alloca ptr, align 8
  %15 = alloca ptr, align 8
  %16 = alloca i32, align 4
  %17 = alloca i8, align 1
  %18 = alloca i32, align 4
  store ptr %0, ptr %7, align 8
  store ptr %1, ptr %8, align 8
  store i32 %2, ptr %9, align 4
  store ptr %3, ptr %10, align 8
  store ptr %4, ptr %11, align 8
  call void @llvm.lifetime.start.p0(i64 73, ptr %12) #10
  call void @llvm.lifetime.start.p0(i64 8, ptr %13) #10
  call void @llvm.lifetime.start.p0(i64 8, ptr %14) #10
  call void @llvm.lifetime.start.p0(i64 8, ptr %15) #10
  call void @llvm.lifetime.start.p0(i64 4, ptr %16) #10
  br label %19

19:                                               ; preds = %5
  br label %20

20:                                               ; preds = %19
  br label %21

21:                                               ; preds = %20
  %22 = getelementptr inbounds [73 x i8], ptr %12, i64 0, i64 0
  store ptr %22, ptr %13, align 8
  store i32 15, ptr %16, align 4
  br label %23

23:                                               ; preds = %53, %21
  %24 = load i32, ptr %16, align 4
  %25 = icmp sge i32 %24, 0
  br i1 %25, label %26, label %56

26:                                               ; preds = %23
  call void @llvm.lifetime.start.p0(i64 1, ptr %17) #10
  %27 = load ptr, ptr %8, align 8
  %28 = getelementptr inbounds nuw %struct.in6_addr, ptr %27, i32 0, i32 0
  %29 = load i32, ptr %16, align 4
  %30 = sext i32 %29 to i64
  %31 = getelementptr inbounds [16 x i8], ptr %28, i64 0, i64 %30
  %32 = load i8, ptr %31, align 1
  store i8 %32, ptr %17, align 1
  %33 = load i8, ptr %17, align 1
  %34 = zext i8 %33 to i32
  %35 = and i32 %34, 15
  %36 = sext i32 %35 to i64
  %37 = getelementptr inbounds [17 x i8], ptr @.str.5, i64 0, i64 %36
  %38 = load i8, ptr %37, align 1
  %39 = load ptr, ptr %13, align 8
  %40 = getelementptr inbounds nuw i8, ptr %39, i32 1
  store ptr %40, ptr %13, align 8
  store i8 %38, ptr %39, align 1
  %41 = load ptr, ptr %13, align 8
  %42 = getelementptr inbounds nuw i8, ptr %41, i32 1
  store ptr %42, ptr %13, align 8
  store i8 46, ptr %41, align 1
  %43 = load i8, ptr %17, align 1
  %44 = zext i8 %43 to i32
  %45 = ashr i32 %44, 4
  %46 = sext i32 %45 to i64
  %47 = getelementptr inbounds [17 x i8], ptr @.str.5, i64 0, i64 %46
  %48 = load i8, ptr %47, align 1
  %49 = load ptr, ptr %13, align 8
  %50 = getelementptr inbounds nuw i8, ptr %49, i32 1
  store ptr %50, ptr %13, align 8
  store i8 %48, ptr %49, align 1
  %51 = load ptr, ptr %13, align 8
  %52 = getelementptr inbounds nuw i8, ptr %51, i32 1
  store ptr %52, ptr %13, align 8
  store i8 46, ptr %51, align 1
  call void @llvm.lifetime.end.p0(i64 1, ptr %17) #10
  br label %53

53:                                               ; preds = %26
  %54 = load i32, ptr %16, align 4
  %55 = add nsw i32 %54, -1
  store i32 %55, ptr %16, align 4
  br label %23, !llvm.loop !19

56:                                               ; preds = %23
  br label %57

57:                                               ; preds = %56
  br label %58

58:                                               ; preds = %57
  br label %59

59:                                               ; preds = %58
  %60 = load ptr, ptr %13, align 8
  call void @llvm.memcpy.p0.p0.i64(ptr align 1 %60, ptr align 1 @.str.6, i64 9, i1 false)
  %61 = call ptr @event_mm_calloc_(i64 noundef 1, i64 noundef 160)
  store ptr %61, ptr %14, align 8
  %62 = load ptr, ptr %14, align 8
  %63 = icmp eq ptr %62, null
  br i1 %63, label %64, label %65

64:                                               ; preds = %59
  store ptr null, ptr %6, align 8
  store i32 1, ptr %18, align 4
  br label %132

65:                                               ; preds = %59
  %66 = load ptr, ptr %10, align 8
  %67 = load ptr, ptr %14, align 8
  %68 = getelementptr inbounds nuw %struct.evdns_request, ptr %67, i32 0, i32 4
  store ptr %66, ptr %68, align 8
  %69 = load ptr, ptr %11, align 8
  %70 = load ptr, ptr %14, align 8
  %71 = getelementptr inbounds nuw %struct.evdns_request, ptr %70, i32 0, i32 5
  store ptr %69, ptr %71, align 8
  %72 = getelementptr inbounds [73 x i8], ptr %12, i64 0, i64 0
  call void (i32, ptr, ...) @evdns_log_(i32 noundef 0, ptr noundef @.str.4, ptr noundef %72)
  br label %73

73:                                               ; preds = %65
  %74 = load ptr, ptr %7, align 8
  %75 = getelementptr inbounds nuw %struct.evdns_base, ptr %74, i32 0, i32 30
  %76 = load ptr, ptr %75, align 8
  %77 = icmp ne ptr %76, null
  br i1 %77, label %78, label %84

78:                                               ; preds = %73
  %79 = load ptr, ptr getelementptr inbounds nuw (%struct.evthread_lock_callbacks, ptr @evthread_lock_fns_, i32 0, i32 4), align 8
  %80 = load ptr, ptr %7, align 8
  %81 = getelementptr inbounds nuw %struct.evdns_base, ptr %80, i32 0, i32 30
  %82 = load ptr, ptr %81, align 8
  %83 = call i32 %79(i32 noundef 0, ptr noundef %82)
  br label %84

84:                                               ; preds = %78, %73
  br label %85

85:                                               ; preds = %84
  br label %86

86:                                               ; preds = %85
  %87 = load ptr, ptr %7, align 8
  %88 = getelementptr inbounds nuw %struct.evdns_base, ptr %87, i32 0, i32 16
  %89 = load i16, ptr %88, align 8
  %90 = load ptr, ptr %14, align 8
  %91 = getelementptr inbounds nuw %struct.evdns_request, ptr %90, i32 0, i32 15
  store i16 %89, ptr %91, align 4
  %92 = load i32, ptr %9, align 4
  %93 = and i32 %92, 6
  %94 = load ptr, ptr %14, align 8
  %95 = getelementptr inbounds nuw %struct.evdns_request, ptr %94, i32 0, i32 15
  %96 = load i16, ptr %95, align 4
  %97 = zext i16 %96 to i32
  %98 = or i32 %97, %93
  %99 = trunc i32 %98 to i16
  store i16 %99, ptr %95, align 4
  %100 = load ptr, ptr %7, align 8
  %101 = load ptr, ptr %14, align 8
  %102 = getelementptr inbounds [73 x i8], ptr %12, i64 0, i64 0
  %103 = load i32, ptr %9, align 4
  %104 = call ptr @request_new(ptr noundef %100, ptr noundef %101, i32 noundef 12, ptr noundef %102, i32 noundef %103)
  store ptr %104, ptr %15, align 8
  %105 = load ptr, ptr %15, align 8
  %106 = icmp ne ptr %105, null
  br i1 %106, label %107, label %109

107:                                              ; preds = %86
  %108 = load ptr, ptr %15, align 8
  call void @request_submit(ptr noundef %108)
  br label %109

109:                                              ; preds = %107, %86
  %110 = load ptr, ptr %14, align 8
  %111 = getelementptr inbounds nuw %struct.evdns_request, ptr %110, i32 0, i32 0
  %112 = load ptr, ptr %111, align 8
  %113 = icmp eq ptr %112, null
  br i1 %113, label %114, label %116

114:                                              ; preds = %109
  %115 = load ptr, ptr %14, align 8
  call void @event_mm_free_(ptr noundef %115)
  store ptr null, ptr %14, align 8
  br label %116

116:                                              ; preds = %114, %109
  br label %117

117:                                              ; preds = %116
  %118 = load ptr, ptr %7, align 8
  %119 = getelementptr inbounds nuw %struct.evdns_base, ptr %118, i32 0, i32 30
  %120 = load ptr, ptr %119, align 8
  %121 = icmp ne ptr %120, null
  br i1 %121, label %122, label %128

122:                                              ; preds = %117
  %123 = load ptr, ptr getelementptr inbounds nuw (%struct.evthread_lock_callbacks, ptr @evthread_lock_fns_, i32 0, i32 5), align 8
  %124 = load ptr, ptr %7, align 8
  %125 = getelementptr inbounds nuw %struct.evdns_base, ptr %124, i32 0, i32 30
  %126 = load ptr, ptr %125, align 8
  %127 = call i32 %123(i32 noundef 0, ptr noundef %126)
  br label %128

128:                                              ; preds = %122, %117
  br label %129

129:                                              ; preds = %128
  br label %130

130:                                              ; preds = %129
  %131 = load ptr, ptr %14, align 8
  store ptr %131, ptr %6, align 8
  store i32 1, ptr %18, align 4
  br label %132

132:                                              ; preds = %130, %64
  call void @llvm.lifetime.end.p0(i64 4, ptr %16) #10
  call void @llvm.lifetime.end.p0(i64 8, ptr %15) #10
  call void @llvm.lifetime.end.p0(i64 8, ptr %14) #10
  call void @llvm.lifetime.end.p0(i64 8, ptr %13) #10
  call void @llvm.lifetime.end.p0(i64 73, ptr %12) #10
  %133 = load ptr, ptr %6, align 8
  ret ptr %133
}