; Function Attrs: nounwind uwtable
define ptr @evdns_base_resolve_reverse_ipv6(ptr noundef %0, ptr noundef readonly captures(none) %1, i32 noundef %2, ptr noundef %3, ptr noundef %4) local_unnamed_addr #2 {
  %6 = alloca [73 x i8], align 16
  call void @llvm.lifetime.start.p0(i64 73, ptr nonnull %6) #21
  br label %7

7:                                                ; preds = %5, %7
  %indvars.iv = phi i64 [ 15, %5 ], [ %indvars.iv.next, %7 ]
  %.03341 = phi ptr [ %6, %5 ], [ %22, %7 ]
  %8 = getelementptr inbounds nuw [16 x i8], ptr %1, i64 0, i64 %indvars.iv
  %9 = load i8, ptr %8, align 1
  %10 = zext i8 %9 to i32
  %11 = and i32 %10, 15
  %12 = zext nneg i32 %11 to i64
  %13 = getelementptr inbounds nuw [17 x i8], ptr @.str.5, i64 0, i64 %12
  %14 = load i8, ptr %13, align 1
  %15 = getelementptr inbounds nuw i8, ptr %.03341, i64 1
  store i8 %14, ptr %.03341, align 1
  %16 = getelementptr inbounds nuw i8, ptr %.03341, i64 2
  store i8 46, ptr %15, align 1
  %17 = lshr i32 %10, 4
  %18 = zext nneg i32 %17 to i64
  %19 = getelementptr inbounds nuw [17 x i8], ptr @.str.5, i64 0, i64 %18
  %20 = load i8, ptr %19, align 1
  %21 = getelementptr inbounds nuw i8, ptr %.03341, i64 3
  store i8 %20, ptr %16, align 1
  %22 = getelementptr inbounds nuw i8, ptr %.03341, i64 4
  store i8 46, ptr %21, align 1
  %indvars.iv.next = add nsw i64 %indvars.iv, -1
  %.not44 = icmp eq i64 %indvars.iv, 0
  br i1 %.not44, label %23, label %7, !llvm.loop !25

23:                                               ; preds = %7
  call void @llvm.memcpy.p0.p0.i64(ptr noundef nonnull align 1 dereferenceable(9) %22, ptr noundef nonnull align 1 dereferenceable(9) @.str.6, i64 9, i1 false)
  %24 = tail call ptr @event_mm_calloc_(i64 noundef 1, i64 noundef 160) #21
  %25 = icmp eq ptr %24, null
  br i1 %25, label %101, label %26

26:                                               ; preds = %23
  %27 = getelementptr inbounds nuw i8, ptr %24, i64 64
  store ptr %3, ptr %27, align 8
  %28 = getelementptr inbounds nuw i8, ptr %24, i64 72
  store ptr %4, ptr %28, align 8
  call void (i32, ptr, ...) @evdns_log_(i32 noundef 0, ptr noundef nonnull @.str.4, ptr noundef nonnull %6)
  %29 = getelementptr inbounds nuw i8, ptr %0, i64 344
  %30 = load ptr, ptr %29, align 8
  %.not = icmp eq ptr %30, null
  br i1 %.not, label %34, label %31

31:                                               ; preds = %26
  %32 = load ptr, ptr getelementptr inbounds nuw (i8, ptr @evthread_lock_fns_, i64 24), align 8
  %33 = call i32 %32(i32 noundef 0, ptr noundef nonnull %30) #21
  br label %34

34:                                               ; preds = %31, %26
  %35 = getelementptr inbounds nuw i8, ptr %0, i64 112
  %36 = load i16, ptr %35, align 8
  %37 = getelementptr inbounds nuw i8, ptr %24, i64 156
  %38 = trunc i32 %2 to i16
  %39 = and i16 %38, 6
  %40 = or i16 %36, %39
  store i16 %40, ptr %37, align 4
  %41 = call fastcc ptr @request_new(ptr noundef nonnull %0, ptr noundef nonnull %24, i32 noundef 12, ptr noundef nonnull %6, i32 noundef %2)
  %.not39 = icmp eq ptr %41, null
  br i1 %.not39, label %request_submit.exit, label %42

42:                                               ; preds = %34
  %43 = getelementptr inbounds nuw i8, ptr %41, i64 184
  %44 = load ptr, ptr %43, align 8
  %45 = getelementptr inbounds nuw i8, ptr %41, i64 24
  %46 = load ptr, ptr %45, align 8
  %.not.i = icmp eq ptr %46, null
  br i1 %.not.i, label %76, label %47

47:                                               ; preds = %42
  %48 = load ptr, ptr %44, align 8
  %49 = getelementptr inbounds nuw i8, ptr %41, i64 168
  %50 = load i16, ptr %49, align 8
  %51 = zext i16 %50 to i32
  %52 = getelementptr inbounds nuw i8, ptr %44, i64 24
  %53 = load i32, ptr %52, align 8
  %54 = srem i32 %51, %53
  %55 = zext nneg i32 %54 to i64
  %56 = getelementptr inbounds nuw ptr, ptr %48, i64 %55
  %57 = load ptr, ptr %56, align 8
  %.not.i.i = icmp eq ptr %57, null
  br i1 %.not.i.i, label %58, label %61

58:                                               ; preds = %47
  store ptr %41, ptr %56, align 8
  %59 = getelementptr inbounds nuw i8, ptr %41, i64 40
  store ptr %41, ptr %59, align 8
  %60 = getelementptr inbounds nuw i8, ptr %41, i64 32
  store ptr %41, ptr %60, align 8
  br label %evdns_request_insert.exit.i

61:                                               ; preds = %47
  %62 = getelementptr inbounds nuw i8, ptr %57, i64 40
  %63 = load ptr, ptr %62, align 8
  %64 = getelementptr inbounds nuw i8, ptr %41, i64 40
  store ptr %63, ptr %64, align 8
  %65 = getelementptr inbounds nuw i8, ptr %63, i64 32
  store ptr %41, ptr %65, align 8
  %66 = load ptr, ptr %56, align 8
  %67 = getelementptr inbounds nuw i8, ptr %41, i64 32
  store ptr %66, ptr %67, align 8
  %68 = getelementptr inbounds nuw i8, ptr %66, i64 40
  store ptr %41, ptr %68, align 8
  br label %evdns_request_insert.exit.i

evdns_request_insert.exit.i:                      ; preds = %61, %58
  %69 = getelementptr inbounds nuw i8, ptr %44, i64 44
  %70 = load i32, ptr %69, align 4
  %71 = add nsw i32 %70, 1
  store i32 %71, ptr %69, align 4
  %72 = load ptr, ptr %45, align 8
  %73 = getelementptr inbounds nuw i8, ptr %72, i64 440
  %74 = load i32, ptr %73, align 8
  %75 = add nsw i32 %74, 1
  store i32 %75, ptr %73, align 8
  call fastcc void @evdns_request_transmit(ptr noundef nonnull %41)
  br label %request_submit.exit

76:                                               ; preds = %42
  %77 = getelementptr inbounds nuw i8, ptr %44, i64 8
  %78 = load ptr, ptr %77, align 8
  %.not.i14.i = icmp eq ptr %78, null
  br i1 %.not.i14.i, label %79, label %82

79:                                               ; preds = %76
  store ptr %41, ptr %77, align 8
  %80 = getelementptr inbounds nuw i8, ptr %41, i64 40
  store ptr %41, ptr %80, align 8
  %81 = getelementptr inbounds nuw i8, ptr %41, i64 32
  store ptr %41, ptr %81, align 8
  br label %evdns_request_insert.exit15.i

82:                                               ; preds = %76
  %83 = getelementptr inbounds nuw i8, ptr %78, i64 40
  %84 = load ptr, ptr %83, align 8
  %85 = getelementptr inbounds nuw i8, ptr %41, i64 40
  store ptr %84, ptr %85, align 8
  %86 = getelementptr inbounds nuw i8, ptr %84, i64 32
  store ptr %41, ptr %86, align 8
  %87 = load ptr, ptr %77, align 8
  %88 = getelementptr inbounds nuw i8, ptr %41, i64 32
  store ptr %87, ptr %88, align 8
  %89 = getelementptr inbounds nuw i8, ptr %87, i64 40
  store ptr %41, ptr %89, align 8
  br label %evdns_request_insert.exit15.i

evdns_request_insert.exit15.i:                    ; preds = %82, %79
  %90 = getelementptr inbounds nuw i8, ptr %44, i64 48
  %91 = load i32, ptr %90, align 8
  %92 = add nsw i32 %91, 1
  store i32 %92, ptr %90, align 8
  br label %request_submit.exit

request_submit.exit:                              ; preds = %evdns_request_insert.exit15.i, %evdns_request_insert.exit.i, %34
  %93 = load ptr, ptr %24, align 8
  %94 = icmp eq ptr %93, null
  br i1 %94, label %95, label %96

95:                                               ; preds = %request_submit.exit
  call void @event_mm_free_(ptr noundef nonnull %24) #21
  br label %96

96:                                               ; preds = %request_submit.exit, %95
  %.034 = phi ptr [ null, %95 ], [ %24, %request_submit.exit ]
  %97 = load ptr, ptr %29, align 8
  %.not40 = icmp eq ptr %97, null
  br i1 %.not40, label %101, label %98

98:                                               ; preds = %96
  %99 = load ptr, ptr getelementptr inbounds nuw (i8, ptr @evthread_lock_fns_, i64 32), align 8
  %100 = call i32 %99(i32 noundef 0, ptr noundef nonnull %97) #21
  br label %101

101:                                              ; preds = %96, %98, %23
  %.0 = phi ptr [ null, %23 ], [ %.034, %98 ], [ %.034, %96 ]
  call void @llvm.lifetime.end.p0(i64 73, ptr nonnull %6) #21
  ret ptr %.0
}